target datalayout = "e-m:e-p270:32:32-p271:32:32-p272:64:64-i64:64-i128:128-f80:128-n8:16:32:64-S128"
target triple = "x86_64-pc-linux-gnu"

%"struct.faiss::Index.base" = type <{ ptr, i32, [4 x i8], i64, i8, i8, [2 x i8], i32, float }>
%"struct.faiss::ProductQuantizer" = type { %"struct.faiss::Quantizer", i64, i64, i64, i64, i8, i32, %"struct.faiss::ClusteringParameters", ptr, %"class.std::vector.0", %"class.std::vector.0", %"class.std::vector.0", %"class.std::vector.0" }
%"struct.faiss::Quantizer" = type { ptr, i64, i64 }
%"struct.faiss::ClusteringParameters" = type <{ i32, i32, i8, i8, i8, i8, i8, [3 x i8], i32, i32, i32, [4 x i8], i64, i8, i8, [6 x i8] }>
%"class.std::vector.0" = type { %"struct.std::_Vector_base.1" }
%"struct.std::_Vector_base.1" = type { %"struct.std::_Vector_base<float, std::allocator<float>>::_Vector_impl" }
%"struct.std::_Vector_base<float, std::allocator<float>>::_Vector_impl" = type { %"struct.std::_Vector_base<float, std::allocator<float>>::_Vector_impl_data" }
%"struct.std::_Vector_base<float, std::allocator<float>>::_Vector_impl_data" = type { ptr, ptr, ptr }
%"struct.faiss::Index" = type <{ ptr, i32, [4 x i8], i64, i8, i8, [2 x i8], i32, float, [4 x i8] }>
%"class.std::__cxx11::basic_string" = type { %"struct.std::__cxx11::basic_string<char>::_Alloc_hider", i64, %union.anon }
%"struct.std::__cxx11::basic_string<char>::_Alloc_hider" = type { ptr }
%union.anon = type { i64, [8 x i8] }
%"struct.faiss::IndexPQ" = type <{ %"struct.faiss::IndexFlatCodes", %"struct.faiss::ProductQuantizer", i8, [7 x i8], %"struct.faiss::PolysemousTraining", i32, i8, [3 x i8], i32, [4 x i8] }>
%"struct.faiss::IndexFlatCodes" = type { %"struct.faiss::Index.base", i64, %"class.std::vector" }
%"class.std::vector" = type { %"struct.std::_Vector_base" }
%"struct.std::_Vector_base" = type { %"struct.std::_Vector_base<unsigned char, std::allocator<unsigned char>>::_Vector_impl" }
%"struct.std::_Vector_base<unsigned char, std::allocator<unsigned char>>::_Vector_impl" = type { %"struct.std::_Vector_base<unsigned char, std::allocator<unsigned char>>::_Vector_impl_data" }
%"struct.std::_Vector_base<unsigned char, std::allocator<unsigned char>>::_Vector_impl_data" = type { ptr, ptr, ptr }
%"struct.faiss::PolysemousTraining" = type { %"struct.faiss::SimulatedAnnealingParameters.base", i32, i32, double, i64, %"class.std::__cxx11::basic_string" }
%"struct.faiss::SimulatedAnnealingParameters.base" = type <{ double, double, i32, i32, i32, i32, i8, i8 }>

; Function Attrs: mustprogress uwtable
define void @_ZN5faiss7IndexPQC2EimmNS_10MetricTypeE(ptr noundef nonnull align 8 dereferenceable(404) %0, i32 noundef %1, i64 noundef %2, i64 noundef %3, i32 noundef %4) unnamed_addr #1 align 2 personality ptr @__gxx_personality_v0 {
  %6 = alloca ptr, align 8
  %7 = alloca i32, align 4
  %8 = alloca i64, align 8
  %9 = alloca i64, align 8
  %10 = alloca i32, align 4
  %11 = alloca ptr, align 8
  %12 = alloca i32, align 4
  store ptr %0, ptr %6, align 8, !tbaa !50
  store i32 %1, ptr %7, align 4, !tbaa !36
  store i64 %2, ptr %8, align 8, !tbaa !11
  store i64 %3, ptr %9, align 8, !tbaa !11
  store i32 %4, ptr %10, align 4, !tbaa !119
  %13 = load ptr, ptr %6, align 8
  %14 = load i32, ptr %7, align 4, !tbaa !36
  %15 = sext i32 %14 to i64
  %16 = load i32, ptr %10, align 4, !tbaa !119
  call void @_ZN5faiss14IndexFlatCodesC2EmlNS_10MetricTypeE(ptr noundef nonnull align 8 dereferenceable(72) %13, i64 noundef 0, i64 noundef %15, i32 noundef %16)
  store ptr getelementptr inbounds inrange(-16, 192) ({ [26 x ptr] }, ptr @_ZTVN5faiss7IndexPQE, i32 0, i32 0, i32 2), ptr %13, align 8, !tbaa !9
  %17 = getelementptr inbounds nuw %"struct.faiss::IndexPQ", ptr %13, i32 0, i32 1
  %18 = load i32, ptr %7, align 4, !tbaa !36
  %19 = sext i32 %18 to i64
  %20 = load i64, ptr %8, align 8, !tbaa !11
  %21 = load i64, ptr %9, align 8, !tbaa !11
  invoke void @_ZN5faiss16ProductQuantizerC1Emmm(ptr noundef nonnull align 8 dereferenceable(216) %17, i64 noundef %19, i64 noundef %20, i64 noundef %21)
          to label %22 unwind label %39

22:                                               ; preds = %5
  %23 = getelementptr inbounds nuw %"struct.faiss::IndexPQ", ptr %13, i32 0, i32 4
  invoke void @_ZN5faiss18PolysemousTrainingC1Ev(ptr noundef nonnull align 8 dereferenceable(96) %23)
          to label %24 unwind label %43

24:                                               ; preds = %22
  %25 = getelementptr inbounds nuw %"struct.faiss::Index", ptr %13, i32 0, i32 5
  store i8 0, ptr %25, align 1, !tbaa !34
  %26 = getelementptr inbounds nuw %"struct.faiss::IndexPQ", ptr %13, i32 0, i32 2
  store i8 0, ptr %26, align 8, !tbaa !52
  %27 = load i64, ptr %9, align 8, !tbaa !11
  %28 = load i64, ptr %8, align 8, !tbaa !11
  %29 = mul i64 %27, %28
  %30 = add i64 %29, 1
  %31 = trunc i64 %30 to i32
  %32 = getelementptr inbounds nuw %"struct.faiss::IndexPQ", ptr %13, i32 0, i32 8
  store i32 %31, ptr %32, align 8, !tbaa !92
  %33 = getelementptr inbounds nuw %"struct.faiss::IndexPQ", ptr %13, i32 0, i32 5
  store i32 0, ptr %33, align 8, !tbaa !70
  %34 = getelementptr inbounds nuw %"struct.faiss::IndexPQ", ptr %13, i32 0, i32 6
  store i8 0, ptr %34, align 4, !tbaa !94
  %35 = getelementptr inbounds nuw %"struct.faiss::IndexPQ", ptr %13, i32 0, i32 1
  %36 = getelementptr inbounds nuw %"struct.faiss::Quantizer", ptr %35, i32 0, i32 2
  %37 = load i64, ptr %36, align 8, !tbaa !93
  %38 = getelementptr inbounds nuw %"struct.faiss::IndexFlatCodes", ptr %13, i32 0, i32 1
  store i64 %37, ptr %38, align 8, !tbaa !120
  ret void

39:                                               ; preds = %5
  %40 = landingpad { ptr, i32 }
          cleanup
  %41 = extractvalue { ptr, i32 } %40, 0
  store ptr %41, ptr %11, align 8
  %42 = extractvalue { ptr, i32 } %40, 1
  store i32 %42, ptr %12, align 4
  br label %47

43:                                               ; preds = %22
  %44 = landingpad { ptr, i32 }
          cleanup
  %45 = extractvalue { ptr, i32 } %44, 0
  store ptr %45, ptr %11, align 8
  %46 = extractvalue { ptr, i32 } %44, 1
  store i32 %46, ptr %12, align 4
  call void @_ZN5faiss16ProductQuantizerD2Ev(ptr noundef nonnull align 8 dereferenceable(216) %17) #20
  br label %47

47:                                               ; preds = %43, %39
  call void @_ZN5faiss14IndexFlatCodesD2Ev(ptr noundef nonnull align 8 dereferenceable(72) %13) #20
  br label %48

48:                                               ; preds = %47
  %49 = load ptr, ptr %11, align 8
  %50 = load i32, ptr %12, align 4
  %51 = insertvalue { ptr, i32 } poison, ptr %49, 0
  %52 = insertvalue { ptr, i32 } %51, i32 %50, 1
  resume { ptr, i32 } %52
}