; Function Attrs: mustprogress uwtable
define void @_ZN5faiss7IndexPQC2EimmNS_10MetricTypeE(ptr noundef nonnull align 8 dereferenceable(404) %0, i32 noundef %1, i64 noundef %2, i64 noundef %3, i32 noundef %4) unnamed_addr #1 align 2 personality ptr @__gxx_personality_v0 {
  %6 = sext i32 %1 to i64
  tail call void @_ZN5faiss14IndexFlatCodesC2EmlNS_10MetricTypeE(ptr noundef nonnull align 8 dereferenceable(72) %0, i64 noundef 0, i64 noundef %6, i32 noundef %4)
  store ptr getelementptr inbounds nuw inrange(-16, 192) (i8, ptr @_ZTVN5faiss7IndexPQE, i64 16), ptr %0, align 8, !tbaa !4
  %7 = getelementptr inbounds nuw i8, ptr %0, i64 72
  invoke void @_ZN5faiss16ProductQuantizerC1Emmm(ptr noundef nonnull align 8 dereferenceable(216) %7, i64 noundef %6, i64 noundef %2, i64 noundef %3)
          to label %8 unwind label %22

8:                                                ; preds = %5
  %9 = getelementptr inbounds nuw i8, ptr %0, i64 296
  invoke void @_ZN5faiss18PolysemousTrainingC1Ev(ptr noundef nonnull align 8 dereferenceable(96) %9)
          to label %10 unwind label %24

10:                                               ; preds = %8
  %11 = getelementptr inbounds nuw i8, ptr %0, i64 25
  store i8 0, ptr %11, align 1, !tbaa !32
  %12 = getelementptr inbounds nuw i8, ptr %0, i64 288
  store i8 0, ptr %12, align 8, !tbaa !60
  %13 = mul i64 %3, %2
  %14 = trunc i64 %13 to i32
  %15 = add i32 %14, 1
  %16 = getelementptr inbounds nuw i8, ptr %0, i64 400
  store i32 %15, ptr %16, align 8, !tbaa !128
  %17 = getelementptr inbounds nuw i8, ptr %0, i64 392
  store i32 0, ptr %17, align 8, !tbaa !129
  %18 = getelementptr inbounds nuw i8, ptr %0, i64 396
  store i8 0, ptr %18, align 4, !tbaa !91
  %19 = getelementptr inbounds nuw i8, ptr %0, i64 88
  %20 = load i64, ptr %19, align 8, !tbaa !90
  %21 = getelementptr inbounds nuw i8, ptr %0, i64 40
  store i64 %20, ptr %21, align 8, !tbaa !104
  ret void

22:                                               ; preds = %5
  %23 = landingpad { ptr, i32 }
          cleanup
  br label %26

24:                                               ; preds = %8
  %25 = landingpad { ptr, i32 }
          cleanup
  tail call void @_ZN5faiss16ProductQuantizerD2Ev(ptr noundef nonnull align 8 dereferenceable(216) %7) #20
  br label %26

26:                                               ; preds = %24, %22
  %.pn = phi { ptr, i32 } [ %25, %24 ], [ %23, %22 ]
  tail call void @_ZN5faiss14IndexFlatCodesD2Ev(ptr noundef nonnull align 8 dereferenceable(72) %0) #20
  resume { ptr, i32 } %.pn
}